(lp0
(dp1
S'prawidlowa_odpowiedz'
p2
S'3'
p3
sS'pytanie'
p4
S'kto zabi\xc5\x82 peterlina'
p5
sS'kategoria'
p6
S'bazinga'
p7
sS'wyjasnienie'
p8
S'na zlecenie biskupa'
p9
sS'odpowiedz_4'
p10
S'rajnewan'
p11
sS'odpowiedz_3'
p12
S'czarni jezdzcy'
p13
sS'odpowiedz_2'
p14
S'samson miodek'
p15
sS'odpowiedz_1'
p16
S'urban horn'
p17
sa.